target datalayout = "e-m:e-p270:32:32-p271:32:32-p272:64:64-i64:64-i128:128-f80:128-n8:16:32:64-S128"
target triple = "x86_64-pc-linux-gnu"

%struct.Vec_Int_t_ = type { i32, i32, ptr }

; Function Attrs: inlinehint nounwind uwtable
define internal i32 @Div_AddLit(i32 noundef %0, ptr noundef %1) #2 {
  %3 = alloca i32, align 4
  %4 = alloca i32, align 4
  %5 = alloca ptr, align 8
  store i32 %0, ptr %4, align 4, !tbaa !10
  store ptr %1, ptr %5, align 8, !tbaa !8
  %6 = load ptr, ptr %5, align 8, !tbaa !8
  %7 = getelementptr inbounds i32, ptr %6, i64 0
  %8 = load i32, ptr %7, align 4, !tbaa !10
  %9 = icmp eq i32 %8, -1
  br i1 %9, label %10, label %14

10:                                               ; preds = %2
  %11 = load i32, ptr %4, align 4, !tbaa !10
  %12 = load ptr, ptr %5, align 8, !tbaa !8
  %13 = getelementptr inbounds i32, ptr %12, i64 0
  store i32 %11, ptr %13, align 4, !tbaa !10
  br label %25

14:                                               ; preds = %2
  %15 = load ptr, ptr %5, align 8, !tbaa !8
  %16 = getelementptr inbounds i32, ptr %15, i64 1
  %17 = load i32, ptr %16, align 4, !tbaa !10
  %18 = icmp eq i32 %17, -1
  br i1 %18, label %19, label %23

19:                                               ; preds = %14
  %20 = load i32, ptr %4, align 4, !tbaa !10
  %21 = load ptr, ptr %5, align 8, !tbaa !8
  %22 = getelementptr inbounds i32, ptr %21, i64 1
  store i32 %20, ptr %22, align 4, !tbaa !10
  br label %24

23:                                               ; preds = %14
  store i32 1, ptr %3, align 4
  br label %26

24:                                               ; preds = %19
  br label %25

25:                                               ; preds = %24, %10
  store i32 0, ptr %3, align 4
  br label %26

26:                                               ; preds = %25, %23
  %27 = load i32, ptr %3, align 4
  ret i32 %27
}

; Function Attrs: nounwind uwtable
define i32 @Div_FindDiv(ptr noundef %0, ptr noundef %1, ptr noundef %2, ptr noundef %3) #0 {
  %5 = alloca i32, align 4
  %6 = alloca ptr, align 8
  %7 = alloca ptr, align 8
  %8 = alloca ptr, align 8
  %9 = alloca ptr, align 8
  %10 = alloca i32, align 4
  %11 = alloca ptr, align 8
  %12 = alloca ptr, align 8
  %13 = alloca ptr, align 8
  %14 = alloca ptr, align 8
  %15 = alloca i32, align 4
  store ptr %0, ptr %6, align 8, !tbaa !3
  store ptr %1, ptr %7, align 8, !tbaa !3
  store ptr %2, ptr %8, align 8, !tbaa !8
  store ptr %3, ptr %9, align 8, !tbaa !8
  call void @llvm.lifetime.start.p0(i64 4, ptr %10) #10
  store i32 0, ptr %10, align 4, !tbaa !10
  call void @llvm.lifetime.start.p0(i64 8, ptr %11) #10
  %16 = load ptr, ptr %6, align 8, !tbaa !3
  %17 = getelementptr inbounds nuw %struct.Vec_Int_t_, ptr %16, i32 0, i32 2
  %18 = load ptr, ptr %17, align 8, !tbaa !12
  store ptr %18, ptr %11, align 8, !tbaa !8
  call void @llvm.lifetime.start.p0(i64 8, ptr %12) #10
  %19 = load ptr, ptr %6, align 8, !tbaa !3
  %20 = getelementptr inbounds nuw %struct.Vec_Int_t_, ptr %19, i32 0, i32 2
  %21 = load ptr, ptr %20, align 8, !tbaa !12
  %22 = load ptr, ptr %6, align 8, !tbaa !3
  %23 = getelementptr inbounds nuw %struct.Vec_Int_t_, ptr %22, i32 0, i32 1
  %24 = load i32, ptr %23, align 4, !tbaa !14
  %25 = sext i32 %24 to i64
  %26 = getelementptr inbounds i32, ptr %21, i64 %25
  store ptr %26, ptr %12, align 8, !tbaa !8
  call void @llvm.lifetime.start.p0(i64 8, ptr %13) #10
  %27 = load ptr, ptr %7, align 8, !tbaa !3
  %28 = getelementptr inbounds nuw %struct.Vec_Int_t_, ptr %27, i32 0, i32 2
  %29 = load ptr, ptr %28, align 8, !tbaa !12
  store ptr %29, ptr %13, align 8, !tbaa !8
  call void @llvm.lifetime.start.p0(i64 8, ptr %14) #10
  %30 = load ptr, ptr %7, align 8, !tbaa !3
  %31 = getelementptr inbounds nuw %struct.Vec_Int_t_, ptr %30, i32 0, i32 2
  %32 = load ptr, ptr %31, align 8, !tbaa !12
  %33 = load ptr, ptr %7, align 8, !tbaa !3
  %34 = getelementptr inbounds nuw %struct.Vec_Int_t_, ptr %33, i32 0, i32 1
  %35 = load i32, ptr %34, align 4, !tbaa !14
  %36 = sext i32 %35 to i64
  %37 = getelementptr inbounds i32, ptr %32, i64 %36
  store ptr %37, ptr %14, align 8, !tbaa !8
  %38 = load ptr, ptr %9, align 8, !tbaa !8
  %39 = getelementptr inbounds i32, ptr %38, i64 1
  store i32 -1, ptr %39, align 4, !tbaa !10
  %40 = load ptr, ptr %9, align 8, !tbaa !8
  %41 = getelementptr inbounds i32, ptr %40, i64 0
  store i32 -1, ptr %41, align 4, !tbaa !10
  %42 = load ptr, ptr %8, align 8, !tbaa !8
  %43 = getelementptr inbounds i32, ptr %42, i64 1
  store i32 -1, ptr %43, align 4, !tbaa !10
  %44 = load ptr, ptr %8, align 8, !tbaa !8
  %45 = getelementptr inbounds i32, ptr %44, i64 0
  store i32 -1, ptr %45, align 4, !tbaa !10
  br label %46

46:                                               ; preds = %94, %4
  %47 = load ptr, ptr %11, align 8, !tbaa !8
  %48 = load ptr, ptr %12, align 8, !tbaa !8
  %49 = icmp ult ptr %47, %48
  br i1 %49, label %50, label %54

50:                                               ; preds = %46
  %51 = load ptr, ptr %13, align 8, !tbaa !8
  %52 = load ptr, ptr %14, align 8, !tbaa !8
  %53 = icmp ult ptr %51, %52
  br label %54

54:                                               ; preds = %50, %46
  %55 = phi i1 [ false, %46 ], [ %53, %50 ]
  br i1 %55, label %56, label %95

56:                                               ; preds = %54
  %57 = load ptr, ptr %11, align 8, !tbaa !8
  %58 = load i32, ptr %57, align 4, !tbaa !10
  %59 = load ptr, ptr %13, align 8, !tbaa !8
  %60 = load i32, ptr %59, align 4, !tbaa !10
  %61 = icmp eq i32 %58, %60
  br i1 %61, label %62, label %69

62:                                               ; preds = %56
  %63 = load ptr, ptr %11, align 8, !tbaa !8
  %64 = getelementptr inbounds nuw i32, ptr %63, i32 1
  store ptr %64, ptr %11, align 8, !tbaa !8
  %65 = load ptr, ptr %13, align 8, !tbaa !8
  %66 = getelementptr inbounds nuw i32, ptr %65, i32 1
  store ptr %66, ptr %13, align 8, !tbaa !8
  %67 = load i32, ptr %10, align 4, !tbaa !10
  %68 = add nsw i32 %67, 1
  store i32 %68, ptr %10, align 4, !tbaa !10
  br label %94

69:                                               ; preds = %56
  %70 = load ptr, ptr %11, align 8, !tbaa !8
  %71 = load i32, ptr %70, align 4, !tbaa !10
  %72 = load ptr, ptr %13, align 8, !tbaa !8
  %73 = load i32, ptr %72, align 4, !tbaa !10
  %74 = icmp slt i32 %71, %73
  br i1 %74, label %75, label %84

75:                                               ; preds = %69
  %76 = load ptr, ptr %11, align 8, !tbaa !8
  %77 = getelementptr inbounds nuw i32, ptr %76, i32 1
  store ptr %77, ptr %11, align 8, !tbaa !8
  %78 = load i32, ptr %76, align 4, !tbaa !10
  %79 = load ptr, ptr %8, align 8, !tbaa !8
  %80 = call i32 @Div_AddLit(i32 noundef %78, ptr noundef %79)
  %81 = icmp ne i32 %80, 0
  br i1 %81, label %82, label %83

82:                                               ; preds = %75
  store i32 -1, ptr %5, align 4
  store i32 1, ptr %15, align 4
  br label %125

83:                                               ; preds = %75
  br label %93

84:                                               ; preds = %69
  %85 = load ptr, ptr %13, align 8, !tbaa !8
  %86 = getelementptr inbounds nuw i32, ptr %85, i32 1
  store ptr %86, ptr %13, align 8, !tbaa !8
  %87 = load i32, ptr %85, align 4, !tbaa !10
  %88 = load ptr, ptr %9, align 8, !tbaa !8
  %89 = call i32 @Div_AddLit(i32 noundef %87, ptr noundef %88)
  %90 = icmp ne i32 %89, 0
  br i1 %90, label %91, label %92

91:                                               ; preds = %84
  store i32 -1, ptr %5, align 4
  store i32 1, ptr %15, align 4
  br label %125

92:                                               ; preds = %84
  br label %93

93:                                               ; preds = %92, %83
  br label %94

94:                                               ; preds = %93, %62
  br label %46, !llvm.loop !15

95:                                               ; preds = %54
  br label %96

96:                                               ; preds = %108, %95
  %97 = load ptr, ptr %11, align 8, !tbaa !8
  %98 = load ptr, ptr %12, align 8, !tbaa !8
  %99 = icmp ult ptr %97, %98
  br i1 %99, label %100, label %109

100:                                              ; preds = %96
  %101 = load ptr, ptr %11, align 8, !tbaa !8
  %102 = getelementptr inbounds nuw i32, ptr %101, i32 1
  store ptr %102, ptr %11, align 8, !tbaa !8
  %103 = load i32, ptr %101, align 4, !tbaa !10
  %104 = load ptr, ptr %8, align 8, !tbaa !8
  %105 = call i32 @Div_AddLit(i32 noundef %103, ptr noundef %104)
  %106 = icmp ne i32 %105, 0
  br i1 %106, label %107, label %108

107:                                              ; preds = %100
  store i32 -1, ptr %5, align 4
  store i32 1, ptr %15, align 4
  br label %125

108:                                              ; preds = %100
  br label %96, !llvm.loop !17

109:                                              ; preds = %96
  br label %110

110:                                              ; preds = %122, %109
  %111 = load ptr, ptr %13, align 8, !tbaa !8
  %112 = load ptr, ptr %14, align 8, !tbaa !8
  %113 = icmp ult ptr %111, %112
  br i1 %113, label %114, label %123

114:                                              ; preds = %110
  %115 = load ptr, ptr %13, align 8, !tbaa !8
  %116 = getelementptr inbounds nuw i32, ptr %115, i32 1
  store ptr %116, ptr %13, align 8, !tbaa !8
  %117 = load i32, ptr %115, align 4, !tbaa !10
  %118 = load ptr, ptr %9, align 8, !tbaa !8
  %119 = call i32 @Div_AddLit(i32 noundef %117, ptr noundef %118)
  %120 = icmp ne i32 %119, 0
  br i1 %120, label %121, label %122

121:                                              ; preds = %114
  store i32 -1, ptr %5, align 4
  store i32 1, ptr %15, align 4
  br label %125

122:                                              ; preds = %114
  br label %110, !llvm.loop !18

123:                                              ; preds = %110
  %124 = load i32, ptr %10, align 4, !tbaa !10
  store i32 %124, ptr %5, align 4
  store i32 1, ptr %15, align 4
  br label %125

125:                                              ; preds = %123, %121, %107, %91, %82
  call void @llvm.lifetime.end.p0(i64 8, ptr %14) #10
  call void @llvm.lifetime.end.p0(i64 8, ptr %13) #10
  call void @llvm.lifetime.end.p0(i64 8, ptr %12) #10
  call void @llvm.lifetime.end.p0(i64 8, ptr %11) #10
  call void @llvm.lifetime.end.p0(i64 4, ptr %10) #10
  %126 = load i32, ptr %5, align 4
  ret i32 %126
}