; Function Attrs: nofree norecurse nosync nounwind memory(read, argmem: readwrite, inaccessiblemem: none) uwtable
define i32 @Div_FindDiv(ptr noundef readonly captures(none) %0, ptr noundef readonly captures(none) %1, ptr noundef captures(none) initializes((0, 8)) %2, ptr noundef captures(none) initializes((0, 8)) %3) local_unnamed_addr #0 {
  %5 = getelementptr inbounds nuw i8, ptr %0, i64 8
  %6 = load ptr, ptr %5, align 8, !tbaa !3
  %7 = getelementptr inbounds nuw i8, ptr %0, i64 4
  %8 = load i32, ptr %7, align 4, !tbaa !10
  %9 = sext i32 %8 to i64
  %10 = getelementptr inbounds i32, ptr %6, i64 %9
  %11 = getelementptr inbounds nuw i8, ptr %1, i64 8
  %12 = load ptr, ptr %11, align 8, !tbaa !3
  %13 = getelementptr inbounds nuw i8, ptr %1, i64 4
  %14 = load i32, ptr %13, align 4, !tbaa !10
  %15 = sext i32 %14 to i64
  %16 = getelementptr inbounds i32, ptr %12, i64 %15
  %17 = getelementptr inbounds nuw i8, ptr %3, i64 4
  store i32 -1, ptr %17, align 4, !tbaa !11
  store i32 -1, ptr %3, align 4, !tbaa !11
  %18 = getelementptr inbounds nuw i8, ptr %2, i64 4
  store i32 -1, ptr %18, align 4, !tbaa !11
  store i32 -1, ptr %2, align 4, !tbaa !11
  %19 = icmp sgt i32 %8, 0
  %20 = icmp sgt i32 %14, 0
  %21 = select i1 %19, i1 %20, i1 false
  br i1 %21, label %.lr.ph, label %.preheader59

.preheader59:                                     ; preds = %Div_AddLit.exit.thread, %4
  %.037.lcssa = phi ptr [ %6, %4 ], [ %.138, %Div_AddLit.exit.thread ]
  %.035.lcssa = phi i32 [ 0, %4 ], [ %.136, %Div_AddLit.exit.thread ]
  %.034.lcssa = phi ptr [ %12, %4 ], [ %.1, %Div_AddLit.exit.thread ]
  %22 = icmp ult ptr %.037.lcssa, %10
  br i1 %22, label %.lr.ph71, label %.preheader

.lr.ph71:                                         ; preds = %.preheader59
  %.promoted = load i32, ptr %2, align 4, !tbaa !11
  br label %54

.lr.ph:                                           ; preds = %4, %Div_AddLit.exit.thread
  %.03467 = phi ptr [ %.1, %Div_AddLit.exit.thread ], [ %12, %4 ]
  %.03566 = phi i32 [ %.136, %Div_AddLit.exit.thread ], [ 0, %4 ]
  %.03765 = phi ptr [ %.138, %Div_AddLit.exit.thread ], [ %6, %4 ]
  %23 = load i32, ptr %.03765, align 4, !tbaa !11
  %24 = load i32, ptr %.03467, align 4, !tbaa !11
  %25 = icmp eq i32 %23, %24
  br i1 %25, label %26, label %30

26:                                               ; preds = %.lr.ph
  %27 = getelementptr inbounds nuw i8, ptr %.03765, i64 4
  %28 = getelementptr inbounds nuw i8, ptr %.03467, i64 4
  %29 = add nsw i32 %.03566, 1
  br label %Div_AddLit.exit.thread

30:                                               ; preds = %.lr.ph
  %31 = icmp slt i32 %23, %24
  br i1 %31, label %32, label %41

32:                                               ; preds = %30
  %33 = getelementptr inbounds nuw i8, ptr %.03765, i64 4
  %34 = load i32, ptr %2, align 4, !tbaa !11
  %35 = icmp eq i32 %34, -1
  br i1 %35, label %36, label %37

36:                                               ; preds = %32
  store i32 %23, ptr %2, align 4, !tbaa !11
  br label %Div_AddLit.exit.thread

37:                                               ; preds = %32
  %38 = load i32, ptr %18, align 4, !tbaa !11
  %39 = icmp eq i32 %38, -1
  br i1 %39, label %40, label %Div_AddLit.exit

40:                                               ; preds = %37
  store i32 %23, ptr %18, align 4, !tbaa !11
  br label %Div_AddLit.exit.thread

41:                                               ; preds = %30
  %42 = getelementptr inbounds nuw i8, ptr %.03467, i64 4
  %43 = load i32, ptr %3, align 4, !tbaa !11
  %44 = icmp eq i32 %43, -1
  br i1 %44, label %45, label %46

45:                                               ; preds = %41
  store i32 %24, ptr %3, align 4, !tbaa !11
  br label %Div_AddLit.exit.thread

46:                                               ; preds = %41
  %47 = load i32, ptr %17, align 4, !tbaa !11
  %48 = icmp eq i32 %47, -1
  br i1 %48, label %49, label %Div_AddLit.exit

49:                                               ; preds = %46
  store i32 %24, ptr %17, align 4, !tbaa !11
  br label %Div_AddLit.exit.thread

Div_AddLit.exit.thread:                           ; preds = %45, %49, %36, %40, %26
  %.138 = phi ptr [ %27, %26 ], [ %33, %40 ], [ %33, %36 ], [ %.03765, %49 ], [ %.03765, %45 ]
  %.136 = phi i32 [ %29, %26 ], [ %.03566, %40 ], [ %.03566, %36 ], [ %.03566, %49 ], [ %.03566, %45 ]
  %.1 = phi ptr [ %28, %26 ], [ %.03467, %40 ], [ %.03467, %36 ], [ %42, %49 ], [ %42, %45 ]
  %50 = icmp ult ptr %.138, %10
  %51 = icmp ult ptr %.1, %16
  %52 = select i1 %50, i1 %51, i1 false
  br i1 %52, label %.lr.ph, label %.preheader59, !llvm.loop !12

.preheader:                                       ; preds = %Div_AddLit.exit48, %.preheader59
  %53 = icmp ult ptr %.034.lcssa, %16
  br i1 %53, label %.lr.ph73, label %Div_AddLit.exit

.lr.ph73:                                         ; preds = %.preheader
  %.promoted77 = load i32, ptr %3, align 4, !tbaa !11
  br label %66

54:                                               ; preds = %.lr.ph71, %Div_AddLit.exit48
  %55 = phi i32 [ %.promoted, %.lr.ph71 ], [ %64, %Div_AddLit.exit48 ]
  %.23970 = phi ptr [ %.037.lcssa, %.lr.ph71 ], [ %56, %Div_AddLit.exit48 ]
  %56 = getelementptr inbounds nuw i8, ptr %.23970, i64 4
  %57 = load i32, ptr %.23970, align 4, !tbaa !11
  %58 = icmp eq i32 %55, -1
  br i1 %58, label %59, label %60

59:                                               ; preds = %54
  store i32 %57, ptr %2, align 4, !tbaa !11
  br label %Div_AddLit.exit48

60:                                               ; preds = %54
  %61 = load i32, ptr %18, align 4, !tbaa !11
  %62 = icmp eq i32 %61, -1
  br i1 %62, label %63, label %Div_AddLit.exit

63:                                               ; preds = %60
  store i32 %57, ptr %18, align 4, !tbaa !11
  br label %Div_AddLit.exit48

Div_AddLit.exit48:                                ; preds = %59, %63
  %64 = phi i32 [ %57, %59 ], [ %55, %63 ]
  %65 = icmp ult ptr %56, %10
  br i1 %65, label %54, label %.preheader, !llvm.loop !14

66:                                               ; preds = %.lr.ph73, %Div_AddLit.exit50
  %67 = phi i32 [ %.promoted77, %.lr.ph73 ], [ %76, %Div_AddLit.exit50 ]
  %.272 = phi ptr [ %.034.lcssa, %.lr.ph73 ], [ %68, %Div_AddLit.exit50 ]
  %68 = getelementptr inbounds nuw i8, ptr %.272, i64 4
  %69 = load i32, ptr %.272, align 4, !tbaa !11
  %70 = icmp eq i32 %67, -1
  br i1 %70, label %71, label %72

71:                                               ; preds = %66
  store i32 %69, ptr %3, align 4, !tbaa !11
  br label %Div_AddLit.exit50

72:                                               ; preds = %66
  %73 = load i32, ptr %17, align 4, !tbaa !11
  %74 = icmp eq i32 %73, -1
  br i1 %74, label %75, label %Div_AddLit.exit

75:                                               ; preds = %72
  store i32 %69, ptr %17, align 4, !tbaa !11
  br label %Div_AddLit.exit50

Div_AddLit.exit50:                                ; preds = %71, %75
  %76 = phi i32 [ %69, %71 ], [ %67, %75 ]
  %77 = icmp ult ptr %68, %16
  br i1 %77, label %66, label %Div_AddLit.exit, !llvm.loop !15

Div_AddLit.exit:                                  ; preds = %46, %37, %60, %Div_AddLit.exit50, %72, %.preheader
  %.0 = phi i32 [ %.035.lcssa, %.preheader ], [ %.035.lcssa, %Div_AddLit.exit50 ], [ -1, %72 ], [ -1, %60 ], [ -1, %37 ], [ -1, %46 ]
  ret i32 %.0
}